; Function Attrs: nounwind uwtable
define i32 @fdt_set_name(ptr noundef %0, i32 noundef %1, ptr noundef readonly captures(none) %2) local_unnamed_addr #0 {
  %4 = alloca i32, align 4
  call void @llvm.lifetime.start.p0(i64 4, ptr nonnull %4) #9
  %5 = tail call i32 @fdt_ro_probe_(ptr noundef %0) #9
  %6 = icmp sgt i32 %5, -1
  br i1 %6, label %7, label %fdt_rw_probe_.exit.thread

7:                                                ; preds = %3
  %8 = getelementptr inbounds nuw i8, ptr %0, i64 20
  %9 = load i8, ptr %8, align 1, !tbaa !3
  %10 = zext i8 %9 to i32
  %11 = shl nuw i32 %10, 24
  %12 = getelementptr inbounds nuw i8, ptr %0, i64 21
  %13 = load i8, ptr %12, align 1, !tbaa !3
  %14 = zext i8 %13 to i32
  %15 = shl nuw nsw i32 %14, 16
  %16 = or disjoint i32 %15, %11
  %17 = getelementptr inbounds nuw i8, ptr %0, i64 22
  %18 = load i8, ptr %17, align 1, !tbaa !3
  %19 = zext i8 %18 to i32
  %20 = shl nuw nsw i32 %19, 8
  %21 = or disjoint i32 %16, %20
  %22 = getelementptr inbounds nuw i8, ptr %0, i64 23
  %23 = load i8, ptr %22, align 1, !tbaa !3
  %24 = zext i8 %23 to i32
  %25 = or disjoint i32 %21, %24
  %26 = icmp ult i32 %25, 17
  br i1 %26, label %fdt_rw_probe_.exit.thread, label %27

27:                                               ; preds = %7
  %28 = getelementptr inbounds nuw i8, ptr %0, i64 36
  %29 = load i8, ptr %28, align 1, !tbaa !3
  %30 = zext i8 %29 to i32
  %31 = shl nuw i32 %30, 24
  %32 = getelementptr inbounds nuw i8, ptr %0, i64 37
  %33 = load i8, ptr %32, align 1, !tbaa !3
  %34 = zext i8 %33 to i32
  %35 = shl nuw nsw i32 %34, 16
  %36 = or disjoint i32 %35, %31
  %37 = getelementptr inbounds nuw i8, ptr %0, i64 38
  %38 = load i8, ptr %37, align 1, !tbaa !3
  %39 = zext i8 %38 to i32
  %40 = shl nuw nsw i32 %39, 8
  %41 = or disjoint i32 %36, %40
  %42 = getelementptr inbounds nuw i8, ptr %0, i64 39
  %43 = load i8, ptr %42, align 1, !tbaa !3
  %44 = zext i8 %43 to i32
  %45 = or disjoint i32 %41, %44
  %46 = tail call fastcc i32 @fdt_blocks_misordered_(ptr noundef nonnull %0, i32 noundef 16, i32 noundef %45)
  %.not.i = icmp eq i32 %46, 0
  br i1 %.not.i, label %47, label %fdt_rw_probe_.exit.thread

47:                                               ; preds = %27
  %.not9.i = icmp eq i32 %25, 17
  br i1 %.not9.i, label %fdt_rw_probe_.exit, label %48

48:                                               ; preds = %47
  store i32 285212672, ptr %8, align 4, !tbaa !6
  br label %fdt_rw_probe_.exit

fdt_rw_probe_.exit:                               ; preds = %48, %47
  %49 = call ptr @fdt_get_name(ptr noundef nonnull %0, i32 noundef %1, ptr noundef nonnull %4) #9
  %.not18 = icmp eq ptr %49, null
  br i1 %.not18, label %50, label %52

50:                                               ; preds = %fdt_rw_probe_.exit
  %51 = load i32, ptr %4, align 4, !tbaa !15
  br label %fdt_rw_probe_.exit.thread

52:                                               ; preds = %fdt_rw_probe_.exit
  %53 = call i64 @strlen(ptr noundef nonnull dereferenceable(1) %2) #10
  %54 = load i32, ptr %4, align 4, !tbaa !15
  %55 = and i32 %54, -4
  %56 = add i32 %55, 4
  %57 = shl i64 %53, 32
  %sext = add i64 %57, 4294967296
  %58 = ashr exact i64 %sext, 32
  %59 = trunc nsw i64 %58 to i32
  %60 = add i32 %59, 3
  %61 = and i32 %60, -4
  %62 = call fastcc i32 @fdt_splice_struct_(ptr noundef nonnull %0, ptr noundef nonnull %49, i32 noundef %56, i32 noundef %61)
  %.not19 = icmp eq i32 %62, 0
  br i1 %.not19, label %63, label %fdt_rw_probe_.exit.thread

63:                                               ; preds = %52
  call void @llvm.memcpy.p0.p0.i64(ptr nonnull align 1 %49, ptr nonnull align 1 %2, i64 %58, i1 false)
  br label %fdt_rw_probe_.exit.thread

fdt_rw_probe_.exit.thread:                        ; preds = %27, %7, %3, %52, %63, %50
  %.1 = phi i32 [ 0, %63 ], [ %51, %50 ], [ %62, %52 ], [ -12, %27 ], [ -10, %7 ], [ %5, %3 ]
  call void @llvm.lifetime.end.p0(i64 4, ptr nonnull %4) #9
  ret i32 %.1
}